target datalayout = "e-m:e-p270:32:32-p271:32:32-p272:64:64-i64:64-i128:128-f80:128-n8:16:32:64-S128"
target triple = "x86_64-pc-linux-gnu"

%"class.std::__cxx11::basic_string" = type { %"struct.std::__cxx11::basic_string<char>::_Alloc_hider", i64, %union.anon }
%"struct.std::__cxx11::basic_string<char>::_Alloc_hider" = type { ptr }
%union.anon = type { i64, [8 x i8] }
%"struct.boost::unit_test::(anonymous namespace)::unit_test_log_impl" = type { %"class.std::vector", %"class.std::vector.0", %"struct.boost::unit_test::log_entry_data", %"struct.boost::unit_test::log_checkpoint_data" }
%"class.std::vector" = type { %"struct.std::_Vector_base" }
%"struct.std::_Vector_base" = type { %"struct.std::_Vector_base<boost::unit_test::(anonymous namespace)::unit_test_log_data_helper_impl, std::allocator<boost::unit_test::(anonymous namespace)::unit_test_log_data_helper_impl>>::_Vector_impl" }
%"struct.std::_Vector_base<boost::unit_test::(anonymous namespace)::unit_test_log_data_helper_impl, std::allocator<boost::unit_test::(anonymous namespace)::unit_test_log_data_helper_impl>>::_Vector_impl" = type { %"struct.std::_Vector_base<boost::unit_test::(anonymous namespace)::unit_test_log_data_helper_impl, std::allocator<boost::unit_test::(anonymous namespace)::unit_test_log_data_helper_impl>>::_Vector_impl_data" }
%"struct.std::_Vector_base<boost::unit_test::(anonymous namespace)::unit_test_log_data_helper_impl, std::allocator<boost::unit_test::(anonymous namespace)::unit_test_log_data_helper_impl>>::_Vector_impl_data" = type { ptr, ptr, ptr }
%"class.std::vector.0" = type { %"struct.std::_Vector_base.1" }
%"struct.std::_Vector_base.1" = type { %"struct.std::_Vector_base<boost::unit_test::(anonymous namespace)::unit_test_log_data_helper_impl *, std::allocator<boost::unit_test::(anonymous namespace)::unit_test_log_data_helper_impl *>>::_Vector_impl" }
%"struct.std::_Vector_base<boost::unit_test::(anonymous namespace)::unit_test_log_data_helper_impl *, std::allocator<boost::unit_test::(anonymous namespace)::unit_test_log_data_helper_impl *>>::_Vector_impl" = type { %"struct.std::_Vector_base<boost::unit_test::(anonymous namespace)::unit_test_log_data_helper_impl *, std::allocator<boost::unit_test::(anonymous namespace)::unit_test_log_data_helper_impl *>>::_Vector_impl_data" }
%"struct.std::_Vector_base<boost::unit_test::(anonymous namespace)::unit_test_log_data_helper_impl *, std::allocator<boost::unit_test::(anonymous namespace)::unit_test_log_data_helper_impl *>>::_Vector_impl_data" = type { ptr, ptr, ptr }
%"struct.boost::unit_test::log_entry_data" = type <{ %"class.std::__cxx11::basic_string", i64, i32, [4 x i8] }>
%"struct.boost::unit_test::log_checkpoint_data" = type { %"class.boost::unit_test::basic_cstring", i64, %"class.std::__cxx11::basic_string" }
%"class.boost::unit_test::basic_cstring" = type { ptr, ptr }
%"class.boost::unit_test::ut_detail::entry_value_collector" = type { i8 }

@__dso_handle = external hidden global i8
@_ZZN5boost9unit_test12_GLOBAL__N_110s_log_implEvE8the_inst = internal global %"struct.boost::unit_test::(anonymous namespace)::unit_test_log_impl" zeroinitializer, align 8
@_ZGVZN5boost9unit_test12_GLOBAL__N_110s_log_implEvE8the_inst = internal global i64 0, align 8

; Function Attrs: mustprogress uwtable
define internal noundef nonnull align 8 dereferenceable(152) ptr @_ZN5boost9unit_test12_GLOBAL__N_110s_log_implEv() #5 personality ptr @__gxx_personality_v0 {
  %1 = alloca ptr, align 8
  %2 = alloca i32, align 4
  %3 = load atomic i8, ptr @_ZGVZN5boost9unit_test12_GLOBAL__N_110s_log_implEvE8the_inst acquire, align 8
  %4 = icmp eq i8 %3, 0
  br i1 %4, label %5, label %11, !prof !7

5:                                                ; preds = %0
  %6 = call i32 @__cxa_guard_acquire(ptr @_ZGVZN5boost9unit_test12_GLOBAL__N_110s_log_implEvE8the_inst) #3
  %7 = icmp ne i32 %6, 0
  br i1 %7, label %8, label %11

8:                                                ; preds = %5
  invoke void @_ZN5boost9unit_test12_GLOBAL__N_118unit_test_log_implC2Ev(ptr noundef nonnull align 8 dereferenceable(152) @_ZZN5boost9unit_test12_GLOBAL__N_110s_log_implEvE8the_inst)
          to label %9 unwind label %12

9:                                                ; preds = %8
  %10 = call i32 @__cxa_atexit(ptr @_ZN5boost9unit_test12_GLOBAL__N_118unit_test_log_implD2Ev, ptr @_ZZN5boost9unit_test12_GLOBAL__N_110s_log_implEvE8the_inst, ptr @__dso_handle) #3
  call void @__cxa_guard_release(ptr @_ZGVZN5boost9unit_test12_GLOBAL__N_110s_log_implEvE8the_inst) #3
  br label %11

11:                                               ; preds = %9, %5, %0
  ret ptr @_ZZN5boost9unit_test12_GLOBAL__N_110s_log_implEvE8the_inst

12:                                               ; preds = %8
  %13 = landingpad { ptr, i32 }
          cleanup
  %14 = extractvalue { ptr, i32 } %13, 0
  store ptr %14, ptr %1, align 8
  %15 = extractvalue { ptr, i32 } %13, 1
  store i32 %15, ptr %2, align 4
  call void @__cxa_guard_abort(ptr @_ZGVZN5boost9unit_test12_GLOBAL__N_110s_log_implEvE8the_inst) #3
  br label %16

16:                                               ; preds = %12
  %17 = load ptr, ptr %1, align 8
  %18 = load i32, ptr %2, align 4
  %19 = insertvalue { ptr, i32 } poison, ptr %17, 0
  %20 = insertvalue { ptr, i32 } %19, i32 %18, 1
  resume { ptr, i32 } %20
}

; Function Attrs: mustprogress nounwind uwtable
define linkonce_odr hidden void @_ZN5boost9unit_test9ut_detail21entry_value_collectorC2Ev(ptr noundef nonnull align 1 dereferenceable(1) %0) unnamed_addr #4 comdat align 2 {
  %2 = alloca ptr, align 8
  store ptr %0, ptr %2, align 8, !tbaa !3
  %3 = load ptr, ptr %2, align 8
  %4 = getelementptr inbounds nuw %"class.boost::unit_test::ut_detail::entry_value_collector", ptr %3, i32 0, i32 0
  store i8 1, ptr %4, align 1, !tbaa !32
  ret void
}

; Function Attrs: mustprogress uwtable
define noundef nonnull align 8 dereferenceable(8) ptr @_ZN5boost9unit_test15unit_test_log_tlsENS0_9log_levelE(ptr noundef nonnull align 8 dereferenceable(8) %0, i32 noundef %1) #5 align 2 {
  %3 = alloca ptr, align 8
  %4 = alloca i32, align 4
  store ptr %0, ptr %3, align 8, !tbaa !3
  store i32 %1, ptr %4, align 4, !tbaa !37
  %5 = load ptr, ptr %3, align 8
  %6 = load i32, ptr %4, align 4, !tbaa !37
  %7 = call noundef nonnull align 8 dereferenceable(152) ptr @_ZN5boost9unit_test12_GLOBAL__N_110s_log_implEv()
  %8 = getelementptr inbounds nuw %"struct.boost::unit_test::(anonymous namespace)::unit_test_log_impl", ptr %7, i32 0, i32 2
  %9 = getelementptr inbounds nuw %"struct.boost::unit_test::log_entry_data", ptr %8, i32 0, i32 2
  store i32 %6, ptr %9, align 8, !tbaa !8
  ret ptr %5
}

; Function Attrs: mustprogress uwtable
define void @_ZN5boost9unit_test15unit_test_log_tclENS0_9log_levelE(ptr dead_on_unwind noalias writable sret(%"class.boost::unit_test::ut_detail::entry_value_collector") align 1 %0, ptr noundef nonnull align 8 dereferenceable(8) %1, i32 noundef %2) #5 align 2 {
  %4 = alloca ptr, align 8
  %5 = alloca ptr, align 8
  %6 = alloca i32, align 4
  store ptr %0, ptr %4, align 8
  store ptr %1, ptr %5, align 8, !tbaa !3
  store i32 %2, ptr %6, align 4, !tbaa !37
  %7 = load ptr, ptr %5, align 8
  %8 = load i32, ptr %6, align 4, !tbaa !37
  %9 = call noundef nonnull align 8 dereferenceable(8) ptr @_ZN5boost9unit_test15unit_test_log_tlsENS0_9log_levelE(ptr noundef nonnull align 8 dereferenceable(8) %7, i32 noundef %8)
  call void @_ZN5boost9unit_test9ut_detail21entry_value_collectorC2Ev(ptr noundef nonnull align 1 dereferenceable(1) %0)
  ret void
}