; Function Attrs: mustprogress uwtable
define void @_ZN5boost9unit_test15unit_test_log_tclENS0_9log_levelE(ptr dead_on_unwind noalias nocapture writable writeonly sret(%"class.boost::unit_test::ut_detail::entry_value_collector") align 1 %0, ptr nocapture noundef nonnull readnone align 8 dereferenceable(8) %1, i32 noundef %2) local_unnamed_addr #4 align 2 personality ptr @__gxx_personality_v0 {
  %4 = load atomic i8, ptr @_ZGVZN5boost9unit_test12_GLOBAL__N_110s_log_implEvE8the_inst acquire, align 8
  %5 = icmp eq i8 %4, 0
  br i1 %5, label %6, label %_ZN5boost9unit_test15unit_test_log_tlsENS0_9log_levelE.exit, !prof !3

6:                                                ; preds = %3
  %7 = tail call i32 @__cxa_guard_acquire(ptr nonnull @_ZGVZN5boost9unit_test12_GLOBAL__N_110s_log_implEvE8the_inst) #27
  %.not.i.i = icmp eq i32 %7, 0
  br i1 %.not.i.i, label %_ZN5boost9unit_test15unit_test_log_tlsENS0_9log_levelE.exit, label %8

8:                                                ; preds = %6
  invoke fastcc void @_ZN5boost9unit_test12_GLOBAL__N_118unit_test_log_implC2Ev()
          to label %9 unwind label %11

9:                                                ; preds = %8
  %10 = tail call i32 @__cxa_atexit(ptr nonnull @_ZN5boost9unit_test12_GLOBAL__N_118unit_test_log_implD2Ev, ptr nonnull @_ZZN5boost9unit_test12_GLOBAL__N_110s_log_implEvE8the_inst, ptr nonnull @__dso_handle) #27
  tail call void @__cxa_guard_release(ptr nonnull @_ZGVZN5boost9unit_test12_GLOBAL__N_110s_log_implEvE8the_inst) #27
  br label %_ZN5boost9unit_test15unit_test_log_tlsENS0_9log_levelE.exit

11:                                               ; preds = %8
  %12 = landingpad { ptr, i32 }
          cleanup
  tail call void @__cxa_guard_abort(ptr nonnull @_ZGVZN5boost9unit_test12_GLOBAL__N_110s_log_implEvE8the_inst) #27
  resume { ptr, i32 } %12

_ZN5boost9unit_test15unit_test_log_tlsENS0_9log_levelE.exit: ; preds = %3, %6, %9
  store i32 %2, ptr getelementptr inbounds nuw (i8, ptr @_ZZN5boost9unit_test12_GLOBAL__N_110s_log_implEvE8the_inst, i64 88), align 8, !tbaa !13
  store i8 1, ptr %0, align 1, !tbaa !44
  ret void
}